; Function Attrs: mustprogress nounwind uwtable
define dso_local void @_ZN4llvm23ObjectSizeOffsetVisitor16visitGlobalAliasERNS_11GlobalAliasE(ptr dead_on_unwind noalias nocapture writable writeonly sret(%"struct.llvm::SizeOffsetAPInt") align 8 %0, ptr noundef nonnull align 8 dereferenceable(388) %1, ptr noundef nonnull align 8 dereferenceable(64) %2) local_unnamed_addr #0 align 2 {
  %4 = tail call noundef zeroext i1 @_ZNK4llvm11GlobalValue14isInterposableEv(ptr noundef nonnull align 8 dereferenceable(48) %2) #20
  br i1 %4, label %5, label %8

5:                                                ; preds = %3
  %6 = getelementptr inbounds i8, ptr %0, i64 8
  tail call void @llvm.memset.p0.i64(ptr noundef nonnull align 8 dereferenceable(32) %6, i8 0, i64 24, i1 false), !alias.scope !689
  store i32 1, ptr %6, align 8, !alias.scope !689
  store i64 0, ptr %0, align 8, !alias.scope !689
  %7 = getelementptr inbounds i8, ptr %0, i64 24
  store i32 1, ptr %7, align 8, !alias.scope !689
  br label %11

8:                                                ; preds = %3
  %9 = getelementptr inbounds i8, ptr %2, i64 -32
  %10 = load ptr, ptr %9, align 8
  tail call void @_ZN4llvm23ObjectSizeOffsetVisitor11computeImplEPNS_5ValueE(ptr dead_on_unwind writable sret(%"struct.llvm::SizeOffsetAPInt") align 8 %0, ptr noundef nonnull align 8 dereferenceable(388) %1, ptr noundef %10)
  br label %11

11:                                               ; preds = %8, %5
  ret void
}